target datalayout = "e-m:e-p270:32:32-p271:32:32-p272:64:64-i64:64-i128:128-f80:128-n8:16:32:64-S128"
target triple = "x86_64-pc-linux-gnu"

%struct.hb_object_header_t = type { %struct.hb_reference_count_t, %struct.hb_atomic_int_t, %struct.hb_atomic_ptr_t }
%struct.hb_reference_count_t = type { %struct.hb_atomic_int_t }
%struct.hb_atomic_int_t = type { i32 }
%struct.hb_atomic_ptr_t = type { ptr }
%struct.hb_draw_funcs_t = type { %struct.hb_object_header_t, %struct.anon.156, ptr, ptr }
%struct.anon.156 = type { ptr, ptr, ptr, ptr, ptr }
%struct.hb_font_draw_glyph_default_adaptor_t = type { ptr, ptr, float, float, float }
%struct.hb_draw_state_t = type { i32, float, float, float, float, %union._hb_var_num_t, %union._hb_var_num_t, %union._hb_var_num_t, %union._hb_var_num_t, %union._hb_var_num_t, %union._hb_var_num_t, %union._hb_var_num_t }
%union._hb_var_num_t = type { float }
%struct.anon.157 = type { ptr, ptr, ptr, ptr, ptr }

; Function Attrs: mustprogress uwtable
define linkonce_odr hidden void @_ZN15hb_draw_funcs_t13emit_cubic_toEPvR15hb_draw_state_tffffff(ptr noundef nonnull align 8 dereferenceable(72) %0, ptr noundef %1, ptr noundef nonnull align 4 dereferenceable(48) %2, float noundef %3, float noundef %4, float noundef %5, float noundef %6, float noundef %7, float noundef %8) #0 comdat align 2 {
  %10 = alloca ptr, align 8
  %11 = alloca ptr, align 8
  %12 = alloca ptr, align 8
  %13 = alloca float, align 4
  %14 = alloca float, align 4
  %15 = alloca float, align 4
  %16 = alloca float, align 4
  %17 = alloca float, align 4
  %18 = alloca float, align 4
  store ptr %0, ptr %10, align 8
  store ptr %1, ptr %11, align 8
  store ptr %2, ptr %12, align 8
  store float %3, ptr %13, align 4
  store float %4, ptr %14, align 4
  store float %5, ptr %15, align 4
  store float %6, ptr %16, align 4
  store float %7, ptr %17, align 4
  store float %8, ptr %18, align 4
  %19 = load ptr, ptr %10, align 8
  %20 = getelementptr inbounds %struct.hb_draw_funcs_t, ptr %19, i32 0, i32 1
  %21 = getelementptr inbounds %struct.anon.156, ptr %20, i32 0, i32 3
  %22 = load ptr, ptr %21, align 8
  %23 = load ptr, ptr %11, align 8
  %24 = load ptr, ptr %12, align 8
  %25 = load float, ptr %13, align 4
  %26 = load float, ptr %14, align 4
  %27 = load float, ptr %15, align 4
  %28 = load float, ptr %16, align 4
  %29 = load float, ptr %17, align 4
  %30 = load float, ptr %18, align 4
  %31 = getelementptr inbounds %struct.hb_draw_funcs_t, ptr %19, i32 0, i32 2
  %32 = load ptr, ptr %31, align 8
  %33 = icmp ne ptr %32, null
  br i1 %33, label %35, label %34

34:                                               ; preds = %9
  br label %40

35:                                               ; preds = %9
  %36 = getelementptr inbounds %struct.hb_draw_funcs_t, ptr %19, i32 0, i32 2
  %37 = load ptr, ptr %36, align 8
  %38 = getelementptr inbounds %struct.anon.157, ptr %37, i32 0, i32 3
  %39 = load ptr, ptr %38, align 8
  br label %40

40:                                               ; preds = %35, %34
  %41 = phi ptr [ null, %34 ], [ %39, %35 ]
  call void %22(ptr noundef %19, ptr noundef %23, ptr noundef %24, float noundef %25, float noundef %26, float noundef %27, float noundef %28, float noundef %29, float noundef %30, ptr noundef %41)
  ret void
}

; Function Attrs: mustprogress uwtable
define internal void @_ZL24hb_draw_cubic_to_defaultP15hb_draw_funcs_tPvP15hb_draw_state_tffffffS1_(ptr noundef %0, ptr noundef %1, ptr noundef %2, float noundef %3, float noundef %4, float noundef %5, float noundef %6, float noundef %7, float noundef %8, ptr noundef %9) #0 {
  %11 = alloca ptr, align 8
  %12 = alloca ptr, align 8
  %13 = alloca ptr, align 8
  %14 = alloca float, align 4
  %15 = alloca float, align 4
  %16 = alloca float, align 4
  %17 = alloca float, align 4
  %18 = alloca float, align 4
  %19 = alloca float, align 4
  %20 = alloca ptr, align 8
  %21 = alloca ptr, align 8
  %22 = alloca float, align 4
  %23 = alloca float, align 4
  %24 = alloca float, align 4
  store ptr %0, ptr %11, align 8
  store ptr %1, ptr %12, align 8
  store ptr %2, ptr %13, align 8
  store float %3, ptr %14, align 4
  store float %4, ptr %15, align 4
  store float %5, ptr %16, align 4
  store float %6, ptr %17, align 4
  store float %7, ptr %18, align 4
  store float %8, ptr %19, align 4
  store ptr %9, ptr %20, align 8
  %25 = load ptr, ptr %12, align 8
  store ptr %25, ptr %21, align 8
  %26 = load ptr, ptr %21, align 8
  %27 = getelementptr inbounds %struct.hb_font_draw_glyph_default_adaptor_t, ptr %26, i32 0, i32 2
  %28 = load float, ptr %27, align 8
  store float %28, ptr %22, align 4
  %29 = load ptr, ptr %21, align 8
  %30 = getelementptr inbounds %struct.hb_font_draw_glyph_default_adaptor_t, ptr %29, i32 0, i32 3
  %31 = load float, ptr %30, align 4
  store float %31, ptr %23, align 4
  %32 = load ptr, ptr %21, align 8
  %33 = getelementptr inbounds %struct.hb_font_draw_glyph_default_adaptor_t, ptr %32, i32 0, i32 4
  %34 = load float, ptr %33, align 8
  store float %34, ptr %24, align 4
  %35 = load ptr, ptr %13, align 8
  %36 = getelementptr inbounds %struct.hb_draw_state_t, ptr %35, i32 0, i32 3
  %37 = load float, ptr %36, align 4
  %38 = load float, ptr %22, align 4
  %39 = load ptr, ptr %13, align 8
  %40 = getelementptr inbounds %struct.hb_draw_state_t, ptr %39, i32 0, i32 4
  %41 = load float, ptr %40, align 4
  %42 = load float, ptr %24, align 4
  %43 = fmul float %41, %42
  %44 = call float @llvm.fmuladd.f32(float %37, float %38, float %43)
  %45 = load ptr, ptr %13, align 8
  %46 = getelementptr inbounds %struct.hb_draw_state_t, ptr %45, i32 0, i32 3
  store float %44, ptr %46, align 4
  %47 = load ptr, ptr %13, align 8
  %48 = getelementptr inbounds %struct.hb_draw_state_t, ptr %47, i32 0, i32 4
  %49 = load float, ptr %48, align 4
  %50 = load float, ptr %23, align 4
  %51 = fmul float %49, %50
  %52 = load ptr, ptr %13, align 8
  %53 = getelementptr inbounds %struct.hb_draw_state_t, ptr %52, i32 0, i32 4
  store float %51, ptr %53, align 4
  %54 = load ptr, ptr %21, align 8
  %55 = getelementptr inbounds %struct.hb_font_draw_glyph_default_adaptor_t, ptr %54, i32 0, i32 0
  %56 = load ptr, ptr %55, align 8
  %57 = load ptr, ptr %21, align 8
  %58 = getelementptr inbounds %struct.hb_font_draw_glyph_default_adaptor_t, ptr %57, i32 0, i32 1
  %59 = load ptr, ptr %58, align 8
  %60 = load ptr, ptr %13, align 8
  %61 = load float, ptr %22, align 4
  %62 = load float, ptr %14, align 4
  %63 = load float, ptr %24, align 4
  %64 = load float, ptr %15, align 4
  %65 = fmul float %63, %64
  %66 = call float @llvm.fmuladd.f32(float %61, float %62, float %65)
  %67 = load float, ptr %23, align 4
  %68 = load float, ptr %15, align 4
  %69 = fmul float %67, %68
  %70 = load float, ptr %22, align 4
  %71 = load float, ptr %16, align 4
  %72 = load float, ptr %24, align 4
  %73 = load float, ptr %17, align 4
  %74 = fmul float %72, %73
  %75 = call float @llvm.fmuladd.f32(float %70, float %71, float %74)
  %76 = load float, ptr %23, align 4
  %77 = load float, ptr %17, align 4
  %78 = fmul float %76, %77
  %79 = load float, ptr %22, align 4
  %80 = load float, ptr %18, align 4
  %81 = load float, ptr %24, align 4
  %82 = load float, ptr %19, align 4
  %83 = fmul float %81, %82
  %84 = call float @llvm.fmuladd.f32(float %79, float %80, float %83)
  %85 = load float, ptr %23, align 4
  %86 = load float, ptr %19, align 4
  %87 = fmul float %85, %86
  call void @_ZN15hb_draw_funcs_t13emit_cubic_toEPvR15hb_draw_state_tffffff(ptr noundef nonnull align 8 dereferenceable(72) %56, ptr noundef %59, ptr noundef nonnull align 4 dereferenceable(48) %60, float noundef %66, float noundef %69, float noundef %75, float noundef %78, float noundef %84, float noundef %87)
  ret void
}