; Function Attrs: mustprogress uwtable
define internal void @_ZL24hb_draw_cubic_to_defaultP15hb_draw_funcs_tPvP15hb_draw_state_tffffffS1_(ptr nocapture readnone %0, ptr nocapture noundef readonly %1, ptr noundef %2, float noundef %3, float noundef %4, float noundef %5, float noundef %6, float noundef %7, float noundef %8, ptr nocapture readnone %9) #1 {
  %11 = getelementptr inbounds i8, ptr %1, i64 16
  %12 = load float, ptr %11, align 8
  %13 = getelementptr inbounds i8, ptr %1, i64 20
  %14 = load float, ptr %13, align 4
  %15 = getelementptr inbounds i8, ptr %1, i64 24
  %16 = load float, ptr %15, align 8
  %17 = getelementptr inbounds i8, ptr %2, i64 12
  %18 = load float, ptr %17, align 4
  %19 = getelementptr inbounds i8, ptr %2, i64 16
  %20 = load float, ptr %19, align 4
  %21 = fmul float %16, %20
  %22 = tail call float @llvm.fmuladd.f32(float %18, float %12, float %21)
  store float %22, ptr %17, align 4
  %23 = fmul float %14, %20
  store float %23, ptr %19, align 4
  %24 = load ptr, ptr %1, align 8
  %25 = getelementptr inbounds i8, ptr %1, i64 8
  %26 = load ptr, ptr %25, align 8
  %27 = getelementptr inbounds i8, ptr %24, i64 40
  %28 = load ptr, ptr %27, align 8
  %29 = getelementptr inbounds i8, ptr %24, i64 56
  %30 = load ptr, ptr %29, align 8
  %.not.i = icmp eq ptr %30, null
  br i1 %.not.i, label %_ZN15hb_draw_funcs_t13emit_cubic_toEPvR15hb_draw_state_tffffff.exit, label %31

31:                                               ; preds = %10
  %32 = getelementptr inbounds i8, ptr %30, i64 24
  %33 = load ptr, ptr %32, align 8
  br label %_ZN15hb_draw_funcs_t13emit_cubic_toEPvR15hb_draw_state_tffffff.exit

_ZN15hb_draw_funcs_t13emit_cubic_toEPvR15hb_draw_state_tffffff.exit: ; preds = %10, %31
  %34 = phi ptr [ %33, %31 ], [ null, %10 ]
  %35 = fmul float %14, %8
  %36 = fmul float %16, %8
  %37 = tail call float @llvm.fmuladd.f32(float %12, float %7, float %36)
  %38 = fmul float %14, %6
  %39 = fmul float %16, %6
  %40 = tail call float @llvm.fmuladd.f32(float %12, float %5, float %39)
  %41 = fmul float %14, %4
  %42 = fmul float %16, %4
  %43 = tail call float @llvm.fmuladd.f32(float %12, float %3, float %42)
  tail call void %28(ptr noundef nonnull %24, ptr noundef %26, ptr noundef nonnull %2, float noundef %43, float noundef %41, float noundef %40, float noundef %38, float noundef %37, float noundef %35, ptr noundef %34)
  ret void
}